target datalayout = "e-m:e-p270:32:32-p271:32:32-p272:64:64-i64:64-i128:128-f80:128-n8:16:32:64-S128"
target triple = "x86_64-pc-linux-gnu"

; Function Attrs: nounwind uwtable
define internal void @vector_fmul_c(ptr noundef %0, ptr noundef %1, ptr noundef %2, i32 noundef %3) #0 {
  %5 = alloca ptr, align 8
  %6 = alloca ptr, align 8
  %7 = alloca ptr, align 8
  %8 = alloca i32, align 4
  %9 = alloca i32, align 4
  store ptr %0, ptr %5, align 8, !tbaa !32
  store ptr %1, ptr %6, align 8, !tbaa !32
  store ptr %2, ptr %7, align 8, !tbaa !32
  store i32 %3, ptr %8, align 4, !tbaa !15
  call void @llvm.lifetime.start.p0(i64 4, ptr %9) #5
  store i32 0, ptr %9, align 4, !tbaa !15
  br label %10

10:                                               ; preds = %30, %4
  %11 = load i32, ptr %9, align 4, !tbaa !15
  %12 = load i32, ptr %8, align 4, !tbaa !15
  %13 = icmp slt i32 %11, %12
  br i1 %13, label %14, label %33

14:                                               ; preds = %10
  %15 = load ptr, ptr %6, align 8, !tbaa !32
  %16 = load i32, ptr %9, align 4, !tbaa !15
  %17 = sext i32 %16 to i64
  %18 = getelementptr inbounds float, ptr %15, i64 %17
  %19 = load float, ptr %18, align 4, !tbaa !34
  %20 = load ptr, ptr %7, align 8, !tbaa !32
  %21 = load i32, ptr %9, align 4, !tbaa !15
  %22 = sext i32 %21 to i64
  %23 = getelementptr inbounds float, ptr %20, i64 %22
  %24 = load float, ptr %23, align 4, !tbaa !34
  %25 = fmul nsz float %19, %24
  %26 = load ptr, ptr %5, align 8, !tbaa !32
  %27 = load i32, ptr %9, align 4, !tbaa !15
  %28 = sext i32 %27 to i64
  %29 = getelementptr inbounds float, ptr %26, i64 %28
  store float %25, ptr %29, align 4, !tbaa !34
  br label %30

30:                                               ; preds = %14
  %31 = load i32, ptr %9, align 4, !tbaa !15
  %32 = add nsw i32 %31, 1
  store i32 %32, ptr %9, align 4, !tbaa !15
  br label %10, !llvm.loop !36

33:                                               ; preds = %10
  call void @llvm.lifetime.end.p0(i64 4, ptr %9) #5
  ret void
}